target datalayout = "e-m:e-p270:32:32-p271:32:32-p272:64:64-i64:64-i128:128-f80:128-n8:16:32:64-S128"
target triple = "x86_64-unknown-linux-gnu"

%struct.MemoryRegion = type { %struct.Object, i8, i8, i8, i8, i8, i8, i8, i8, i8, i8, ptr, ptr, ptr, ptr, ptr, ptr, i32, i128, i64, ptr, i64, i8, i8, i8, i8, i8, ptr, i64, i32, %union.anon, %union.anon.1, %union.anon.2, ptr, i32, ptr, ptr, i8 }
%struct.Object = type { ptr, ptr, ptr, i32, ptr }
%union.anon = type { %struct.QTailQLink }
%struct.QTailQLink = type { ptr, ptr }
%union.anon.1 = type { %struct.QTailQLink }
%union.anon.2 = type { %struct.QTailQLink }
%struct.MemTxAttrs = type { i32 }
%struct.subpage_t = type { %struct.MemoryRegion, ptr, i64, [0 x i16] }

; Function Attrs: nounwind sspstrong uwtable
define internal zeroext i1 @subpage_accepts(ptr noundef %opaque, i64 noundef %addr, i32 noundef %len, i1 noundef zeroext %is_write, i32 %attrs.coerce) #0 {
entry:
  %attrs = alloca %struct.MemTxAttrs, align 4
  %opaque.addr = alloca ptr, align 8
  %addr.addr = alloca i64, align 8
  %len.addr = alloca i32, align 4
  %is_write.addr = alloca i8, align 1
  %subpage = alloca ptr, align 8
  %coerce.dive = getelementptr inbounds %struct.MemTxAttrs, ptr %attrs, i32 0, i32 0
  store i32 %attrs.coerce, ptr %coerce.dive, align 4
  store ptr %opaque, ptr %opaque.addr, align 8
  store i64 %addr, ptr %addr.addr, align 8
  store i32 %len, ptr %len.addr, align 4
  %frombool = zext i1 %is_write to i8
  store i8 %frombool, ptr %is_write.addr, align 1
  %0 = load ptr, ptr %opaque.addr, align 8
  store ptr %0, ptr %subpage, align 8
  %1 = load ptr, ptr %subpage, align 8
  %fv = getelementptr inbounds %struct.subpage_t, ptr %1, i32 0, i32 1
  %2 = load ptr, ptr %fv, align 16
  %3 = load i64, ptr %addr.addr, align 8
  %4 = load ptr, ptr %subpage, align 8
  %base = getelementptr inbounds %struct.subpage_t, ptr %4, i32 0, i32 2
  %5 = load i64, ptr %base, align 8
  %add = add i64 %3, %5
  %6 = load i32, ptr %len.addr, align 4
  %conv = zext i32 %6 to i64
  %7 = load i8, ptr %is_write.addr, align 1
  %tobool = trunc i8 %7 to i1
  %coerce.dive1 = getelementptr inbounds %struct.MemTxAttrs, ptr %attrs, i32 0, i32 0
  %8 = load i32, ptr %coerce.dive1, align 4
  %call = call zeroext i1 @flatview_access_valid(ptr noundef %2, i64 noundef %add, i64 noundef %conv, i1 noundef zeroext %tobool, i32 %8)
  ret i1 %call
}