; Function Attrs: nounwind sspstrong uwtable
define internal noundef zeroext i1 @subpage_accepts(ptr noundef readonly captures(none) %opaque, i64 noundef %addr, i32 noundef %len, i1 noundef zeroext %is_write, i32 %attrs.coerce) #0 {
entry:
  %fv = getelementptr inbounds nuw i8, ptr %opaque, i64 272
  %0 = load ptr, ptr %fv, align 16
  %base = getelementptr inbounds nuw i8, ptr %opaque, i64 280
  %1 = load i64, ptr %base, align 8
  %add = add i64 %1, %addr
  %conv = zext i32 %len to i64
  %call = tail call fastcc zeroext i1 @flatview_access_valid(ptr noundef %0, i64 noundef %add, i64 noundef %conv, i1 noundef zeroext %is_write, i32 %attrs.coerce)
  ret i1 %call
}